Certificate:
    Data:
        Version: 3 (0x2)
        Serial Number: 2 (0x2)
        Signature Algorithm: sha1WithRSAEncryption
        Issuer: DC=org, DC=simple, O=Simple Inc, OU=Simple Signing CA, CN=Simple Signing CA
        Validity
            Not Before: Nov 12 09:34:10 2022 GMT
            Not After : Nov 11 09:34:10 2024 GMT
        Subject: DC=org, DC=simple, O=Simple Inc, CN=www.simple.org
        Subject Public Key Info:
            Public Key Algorithm: rsaEncryption
                Public-Key: (2048 bit)
                Modulus:
                    00:94:19:c2:97:c0:0d:0b:5d:cb:69:11:f9:a7:a8:
                    e6:36:4c:2e:da:9c:24:50:3e:d3:6f:2a:84:10:45:
                    cb:c3:ba:d2:fe:b4:11:49:59:1b:d5:5a:cf:09:3e:
                    78:1d:6f:2c:87:ea:f9:52:a6:d1:19:e2:93:14:20:
                    c0:39:13:f0:85:f7:b6:3f:25:93:e4:a9:cf:5e:42:
                    0f:02:25:fb:0e:a2:0f:87:1e:e1:af:ba:fd:85:6a:
                    67:80:9a:70:fc:1c:fc:b5:6f:23:ef:b5:f7:67:5c:
                    42:92:5b:44:9e:c6:63:ce:0a:ed:0d:a7:ce:6f:1a:
                    79:e9:14:a8:28:bb:af:78:d8:bb:c4:f9:58:e8:cf:
                    de:63:e4:02:e0:c5:14:ff:5f:05:b9:b6:27:51:e3:
                    d7:e5:13:93:7d:bf:40:ec:6d:fd:c5:a5:d4:3a:0f:
                    7b:33:b4:e4:b8:a3:cd:26:54:98:b1:a1:60:56:9b:
                    f1:62:fa:55:88:ad:13:5c:2d:e5:de:ad:9a:00:f3:
                    70:a9:91:7e:b4:bb:69:13:69:c4:6e:45:32:29:f9:
                    5e:04:eb:df:69:6d:10:3e:8f:50:e2:7e:a1:3a:b8:
                    8e:fd:3b:7e:17:88:a9:fa:a4:3b:e4:0a:bf:f5:7b:
                    00:49:ac:11:a4:fa:58:af:d1:18:78:12:14:27:8a:
                    6e:8d
                Exponent: 65537 (0x10001)
        X509v3 extensions:
            X509v3 Key Usage: critical
                Digital Signature, Key Encipherment
            X509v3 Basic Constraints: 
                CA:FALSE
            X509v3 Extended Key Usage: 
                TLS Web Server Authentication, TLS Web Client Authentication
            X509v3 Subject Key Identifier: 
                D6:B4:6A:E5:74:A6:73:E6:2B:87:4F:CE:C7:7F:7A:30:AB:5E:BF:11
            X509v3 Authority Key Identifier: 
                36:A3:A5:A7:4B:8C:72:BC:F1:0B:CB:EF:59:57:E5:A9:CA:91:3B:DB
            X509v3 Subject Alternative Name: 
                DNS:www.simple.org
    Signature Algorithm: sha1WithRSAEncryption
    Signature Value:
        4a:9f:d7:3f:88:fb:7d:05:1a:41:2a:b3:89:d8:58:6f:da:4b:
        d0:45:51:2b:dd:33:3e:ef:94:66:98:60:8d:58:14:56:22:44:
        cd:ef:80:18:66:b5:17:6e:3b:f3:1c:3a:34:b3:de:14:52:11:
        5a:9f:23:2e:18:47:55:b3:64:78:2c:d0:e8:0e:90:1b:1a:e4:
        0c:ac:f8:d6:e6:a2:a0:1a:00:8a:5c:81:4f:6a:17:bf:0a:38:
        a7:8a:fa:fe:40:81:d0:4b:81:43:2a:1c:73:df:cd:47:1e:7a:
        bc:41:b4:3d:ae:e1:ee:8b:f6:91:ab:ea:d4:76:f6:18:af:f2:
        54:9b:8c:6f:fe:ef:b3:94:61:7e:09:91:ad:1e:23:e5:29:0b:
        33:a7:af:ec:2f:01:84:88:d3:3f:6a:a9:06:e2:e8:49:fc:c0:
        87:db:5c:79:1a:44:94:78:24:ff:3f:50:0d:26:c9:33:86:38:
        ac:77:1d:c8:eb:e6:83:3d:0c:6c:1f:30:3e:ce:52:0f:ee:61:
        c0:60:b5:d0:c6:26:f3:a4:80:ff:58:f4:ac:06:55:16:3b:49:
        f8:d4:cf:f8:62:42:70:0b:22:cc:3d:77:30:a2:d6:3a:36:7a:
        6d:04:18:d9:33:e8:54:1d:e4:e9:2c:22:50:68:1d:12:7c:08:
        60:78:a1:58
-----BEGIN CERTIFICATE-----
MIID6TCCAtGgAwIBAgIBAjANBgkqhkiG9w0BAQUFADB6MRMwEQYKCZImiZPyLGQB
GRYDb3JnMRYwFAYKCZImiZPyLGQBGRYGc2ltcGxlMRMwEQYDVQQKDApTaW1wbGUg
SW5jMRowGAYDVQQLDBFTaW1wbGUgU2lnbmluZyBDQTEaMBgGA1UEAwwRU2ltcGxl
IFNpZ25pbmcgQ0EwHhcNMjIxMTEyMDkzNDEwWhcNMjQxMTExMDkzNDEwWjBbMRMw
EQYKCZImiZPyLGQBGRYDb3JnMRYwFAYKCZImiZPyLGQBGRYGc2ltcGxlMRMwEQYD
VQQKDApTaW1wbGUgSW5jMRcwFQYDVQQDDA53d3cuc2ltcGxlLm9yZzCCASIwDQYJ
KoZIhvcNAQEBBQADggEPADCCAQoCggEBAJQZwpfADQtdy2kR+aeo5jZMLtqcJFA+
028qhBBFy8O60v60EUlZG9Vazwk+eB1vLIfq+VKm0RnikxQgwDkT8IX3tj8lk+Sp
z15CDwIl+w6iD4ce4a+6/YVqZ4CacPwc/LVvI++192dcQpJbRJ7GY84K7Q2nzm8a
eekUqCi7r3jYu8T5WOjP3mPkAuDFFP9fBbm2J1Hj1+UTk32/QOxt/cWl1DoPezO0
5LijzSZUmLGhYFab8WL6VYitE1wt5d6tmgDzcKmRfrS7aRNpxG5FMin5XgTr32lt
ED6PUOJ+oTq4jv07fheIqfqkO+QKv/V7AEmsEaT6WK/RGHgSFCeKbo0CAwEAAaOB
mDCBlTAOBgNVHQ8BAf8EBAMCBaAwCQYDVR0TBAIwADAdBgNVHSUEFjAUBggrBgEF
BQcDAQYIKwYBBQUHAwIwHQYDVR0OBBYEFNa0auV0pnPmK4dPzsd/ejCrXr8RMB8G
A1UdIwQYMBaAFDajpadLjHK88QvL71lX5anKkTvbMBkGA1UdEQQSMBCCDnd3dy5z
aW1wbGUub3JnMA0GCSqGSIb3DQEBBQUAA4IBAQBKn9c/iPt9BRpBKrOJ2Fhv2kvQ
RVEr3TM+75RmmGCNWBRWIkTN74AYZrUXbjvzHDo0s94UUhFanyMuGEdVs2R4LNDo
DpAbGuQMrPjW5qKgGgCKXIFPahe/Cjinivr+QIHQS4FDKhxz381HHnq8QbQ9ruHu
i/aRq+rUdvYYr/JUm4xv/u+zlGF+CZGtHiPlKQszp6/sLwGEiNM/aqkG4uhJ/MCH
21x5GkSUeCT/P1ANJskzhjisdx3I6+aDPQxsHzA+zlIP7mHAYLXQxibzpID/WPSs
BlUWO0n41M/4YkJwCyLMPXcwotY6NnptBBjZM+hUHeTpLCJQaB0SfAhgeKFY
-----END CERTIFICATE-----
