Certificate:
    Data:
        Version: 3 (0x2)
        Serial Number: 1 (0x1)
        Signature Algorithm: sha1WithRSAEncryption
        Issuer: DC=org, DC=simple, O=Simple Inc, OU=Simple Root CA, CN=Simple Root CA
        Validity
            Not Before: Nov 12 08:42:49 2022 GMT
            Not After : Nov 11 08:42:49 2032 GMT
        Subject: DC=org, DC=simple, O=Simple Inc, OU=Simple Root CA, CN=Simple Root CA
        Subject Public Key Info:
            Public Key Algorithm: rsaEncryption
                Public-Key: (2048 bit)
                Modulus:
                    00:e0:52:35:d5:9d:93:68:26:18:f4:3b:30:1d:fd:
                    99:80:a3:43:5f:26:99:29:8d:94:db:15:54:39:ce:
                    95:ff:53:d1:da:53:2f:c0:74:7e:37:d9:33:36:4c:
                    b4:dc:eb:0c:73:d4:ff:ae:21:99:64:fe:ae:7f:d8:
                    d7:b1:4e:12:a2:22:b6:b6:8a:45:00:32:d8:7a:77:
                    02:4f:8a:b1:c8:71:e5:72:78:7b:4a:44:d2:19:e1:
                    73:5b:0f:11:77:a4:c8:7e:ac:b8:d0:4f:d2:41:7f:
                    d0:ba:55:06:e9:e9:73:70:ee:79:48:f3:4b:25:ed:
                    9d:a3:7f:b1:94:e7:d7:dd:8a:11:23:20:5e:27:9a:
                    a6:53:b5:8e:94:17:02:33:67:63:6f:0b:db:75:29:
                    7e:e8:66:a5:55:b4:eb:bb:66:5b:b5:a4:43:a6:c8:
                    1d:38:f0:ae:6d:ad:d4:d4:9c:20:4e:97:da:0b:ce:
                    87:73:b3:13:e7:71:87:4b:72:85:38:1b:55:49:64:
                    d9:28:a0:c5:97:2c:1e:0b:7b:e6:a0:2a:5e:71:88:
                    24:51:c3:85:f3:49:c2:36:f4:28:8b:6b:a4:cf:66:
                    07:ae:d7:7f:1a:84:91:bf:fb:7b:24:32:f0:8d:0a:
                    97:fd:00:6b:30:0b:af:1a:35:a2:f4:4b:45:72:b5:
                    d5:1d
                Exponent: 65537 (0x10001)
        X509v3 extensions:
            X509v3 Key Usage: critical
                Certificate Sign, CRL Sign
            X509v3 Basic Constraints: critical
                CA:TRUE
            X509v3 Subject Key Identifier: 
                B4:33:35:01:40:5B:08:95:97:D8:8D:54:4D:E1:26:33:20:2A:26:A2
            X509v3 Authority Key Identifier: 
                B4:33:35:01:40:5B:08:95:97:D8:8D:54:4D:E1:26:33:20:2A:26:A2
    Signature Algorithm: sha1WithRSAEncryption
    Signature Value:
        2c:11:10:64:83:76:fe:4f:56:fb:a2:7e:e8:2f:e8:c7:5e:12:
        14:6c:48:9a:95:a1:4c:d1:95:d8:8e:03:a9:83:ae:3f:c2:d8:
        d8:b5:93:4c:af:b8:2c:5c:f7:e6:6b:b3:d1:b9:58:b7:3b:0f:
        94:09:9f:00:c3:89:c3:7b:20:aa:73:ae:98:48:c4:97:1c:46:
        19:06:56:48:dd:fd:01:a8:6c:d7:40:41:22:7b:5d:42:bc:1c:
        b9:bd:3a:77:6b:21:bb:5f:6c:7f:cd:60:ed:99:9a:4e:f5:bf:
        76:f4:bf:db:4a:7f:8a:17:02:be:55:71:43:a0:7d:43:81:76:
        fd:a6:a6:81:46:dc:83:14:9a:eb:59:6e:c6:ac:2d:33:58:95:
        a6:f2:9d:67:f5:c2:31:8f:f4:cd:cc:e8:a6:88:39:d3:c9:20:
        52:5e:73:a4:24:1a:6d:32:da:f7:be:52:a4:ed:6a:0c:f1:67:
        b4:49:4e:77:ae:88:5e:f2:6e:1d:7c:fa:0a:43:0b:a1:f1:08:
        a4:79:bf:14:d6:62:b3:e6:20:db:c8:36:a2:45:33:41:15:6b:
        b2:cc:65:d3:05:32:7b:63:13:fc:62:e6:2b:3a:77:95:d4:20:
        75:5a:56:d1:55:22:4a:fb:02:bc:d8:52:6f:b7:5f:31:33:16:
        75:f5:a5:6c
-----BEGIN CERTIFICATE-----
MIIDxjCCAq6gAwIBAgIBATANBgkqhkiG9w0BAQUFADB0MRMwEQYKCZImiZPyLGQB
GRYDb3JnMRYwFAYKCZImiZPyLGQBGRYGc2ltcGxlMRMwEQYDVQQKDApTaW1wbGUg
SW5jMRcwFQYDVQQLDA5TaW1wbGUgUm9vdCBDQTEXMBUGA1UEAwwOU2ltcGxlIFJv
b3QgQ0EwHhcNMjIxMTEyMDg0MjQ5WhcNMzIxMTExMDg0MjQ5WjB0MRMwEQYKCZIm
iZPyLGQBGRYDb3JnMRYwFAYKCZImiZPyLGQBGRYGc2ltcGxlMRMwEQYDVQQKDApT
aW1wbGUgSW5jMRcwFQYDVQQLDA5TaW1wbGUgUm9vdCBDQTEXMBUGA1UEAwwOU2lt
cGxlIFJvb3QgQ0EwggEiMA0GCSqGSIb3DQEBAQUAA4IBDwAwggEKAoIBAQDgUjXV
nZNoJhj0OzAd/ZmAo0NfJpkpjZTbFVQ5zpX/U9HaUy/AdH432TM2TLTc6wxz1P+u
IZlk/q5/2NexThKiIra2ikUAMth6dwJPirHIceVyeHtKRNIZ4XNbDxF3pMh+rLjQ
T9JBf9C6VQbp6XNw7nlI80sl7Z2jf7GU59fdihEjIF4nmqZTtY6UFwIzZ2NvC9t1
KX7oZqVVtOu7Zlu1pEOmyB048K5trdTUnCBOl9oLzodzsxPncYdLcoU4G1VJZNko
oMWXLB4Le+agKl5xiCRRw4XzScI29CiLa6TPZgeu138ahJG/+3skMvCNCpf9AGsw
C68aNaL0S0VytdUdAgMBAAGjYzBhMA4GA1UdDwEB/wQEAwIBBjAPBgNVHRMBAf8E
BTADAQH/MB0GA1UdDgQWBBS0MzUBQFsIlZfYjVRN4SYzIComojAfBgNVHSMEGDAW
gBS0MzUBQFsIlZfYjVRN4SYzIComojANBgkqhkiG9w0BAQUFAAOCAQEALBEQZIN2
/k9W+6J+6C/ox14SFGxImpWhTNGV2I4DqYOuP8LY2LWTTK+4LFz35muz0blYtzsP
lAmfAMOJw3sgqnOumEjElxxGGQZWSN39Aahs10BBIntdQrwcub06d2shu19sf81g
7ZmaTvW/dvS/20p/ihcCvlVxQ6B9Q4F2/aamgUbcgxSa61luxqwtM1iVpvKdZ/XC
MY/0zczopog508kgUl5zpCQabTLa975SpO1qDPFntElOd66IXvJuHXz6CkMLofEI
pHm/FNZis+Yg28g2okUzQRVrssxl0wUye2MT/GLmKzp3ldQgdVpW0VUiSvsCvNhS
b7dfMTMWdfWlbA==
-----END CERTIFICATE-----
