Certificate:
    Data:
        Version: 3 (0x2)
        Serial Number: 2 (0x2)
        Signature Algorithm: sha1WithRSAEncryption
        Issuer: DC=org, DC=simple, O=Simple Inc, OU=Simple Root CA, CN=Simple Root CA
        Validity
            Not Before: Nov 12 09:01:53 2022 GMT
            Not After : Nov 11 09:01:53 2032 GMT
        Subject: DC=org, DC=simple, O=Simple Inc, OU=Simple Signing CA, CN=Simple Signing CA
        Subject Public Key Info:
            Public Key Algorithm: rsaEncryption
                Public-Key: (2048 bit)
                Modulus:
                    00:ac:ba:eb:af:c0:a6:f5:3e:f4:f4:a4:f2:b4:cb:
                    ff:14:f6:78:df:35:fc:13:ea:e4:59:d2:cc:65:d5:
                    69:65:4d:d4:a3:04:f2:b4:bc:40:6f:9e:b5:a2:61:
                    51:cd:95:53:b8:05:da:f9:59:87:87:9c:29:ef:b7:
                    33:62:ad:3d:57:e2:72:17:a4:f3:df:b4:d4:1d:c8:
                    53:6c:d4:0c:bc:7e:de:2b:04:47:5f:ad:f6:5a:9b:
                    9e:ca:ae:fc:b6:08:80:01:d3:8e:7b:ee:c0:84:17:
                    45:5f:be:84:53:5f:a9:12:fa:af:ae:65:58:60:c1:
                    5d:44:12:13:93:da:1c:ab:df:93:e9:7e:7f:72:fb:
                    50:b8:3a:73:3d:53:b3:56:e1:91:4c:54:ae:cb:2f:
                    09:2e:5a:31:02:4f:ad:e9:68:b0:7d:37:59:c0:ac:
                    ff:19:32:0c:90:19:31:ac:3e:57:f8:f1:c9:26:c6:
                    11:d2:3c:66:e9:54:63:e1:9a:86:85:71:4a:e3:44:
                    25:1f:e4:11:d8:40:a9:05:e0:16:4b:29:1a:24:76:
                    4f:a7:fb:81:d7:bb:eb:87:7e:25:06:4c:47:72:e5:
                    6f:b5:04:aa:0d:5e:75:b8:ee:0d:62:37:be:f6:51:
                    c0:bc:09:f3:5e:72:14:14:65:31:ff:df:a0:c1:0c:
                    e0:59
                Exponent: 65537 (0x10001)
        X509v3 extensions:
            X509v3 Key Usage: critical
                Certificate Sign, CRL Sign
            X509v3 Basic Constraints: critical
                CA:TRUE, pathlen:0
            X509v3 Subject Key Identifier: 
                36:A3:A5:A7:4B:8C:72:BC:F1:0B:CB:EF:59:57:E5:A9:CA:91:3B:DB
            X509v3 Authority Key Identifier: 
                B4:33:35:01:40:5B:08:95:97:D8:8D:54:4D:E1:26:33:20:2A:26:A2
    Signature Algorithm: sha1WithRSAEncryption
    Signature Value:
        20:bc:9f:4c:8b:31:25:3a:28:36:5c:73:69:a4:74:76:77:ca:
        8c:be:a6:a4:21:62:09:56:c9:5a:3d:38:30:6a:62:4d:bf:d9:
        df:4a:84:3c:6f:46:2d:8f:97:28:50:7d:1f:74:b1:c7:2d:c6:
        0d:d9:0b:ff:0e:51:42:fb:2e:15:f9:4f:f8:ce:28:13:39:52:
        b0:56:99:63:d7:3e:d5:4c:a2:80:de:1d:bd:62:75:d6:36:ed:
        79:6b:79:44:36:40:92:f9:19:b3:29:11:24:ea:91:95:fc:00:
        6f:42:fd:69:a9:6e:39:50:9f:d3:d8:a0:f2:20:86:1a:e2:fb:
        66:80:4f:ee:51:be:d3:36:93:c5:0b:ab:f5:0d:d4:30:cd:15:
        16:e6:03:25:b7:7b:0b:3e:3f:28:01:b1:5c:19:d5:8b:ea:f6:
        29:f9:25:f6:07:2c:d4:2a:4d:1e:e3:b9:3c:da:d4:7a:33:ff:
        bb:d0:cc:47:41:00:af:f9:9b:6d:16:fc:32:e4:10:64:f1:e8:
        85:e3:3c:8f:f6:90:83:5a:87:1a:bb:66:a9:31:52:af:23:4d:
        d5:74:d9:76:38:a3:41:5f:a2:a7:34:f5:fd:2d:fb:c8:a5:59:
        f1:05:9b:60:c4:9b:69:0a:67:65:66:a9:6d:3e:a7:6d:9d:6d:
        18:f4:c2:92
-----BEGIN CERTIFICATE-----
MIIDzzCCAregAwIBAgIBAjANBgkqhkiG9w0BAQUFADB0MRMwEQYKCZImiZPyLGQB
GRYDb3JnMRYwFAYKCZImiZPyLGQBGRYGc2ltcGxlMRMwEQYDVQQKDApTaW1wbGUg
SW5jMRcwFQYDVQQLDA5TaW1wbGUgUm9vdCBDQTEXMBUGA1UEAwwOU2ltcGxlIFJv
b3QgQ0EwHhcNMjIxMTEyMDkwMTUzWhcNMzIxMTExMDkwMTUzWjB6MRMwEQYKCZIm
iZPyLGQBGRYDb3JnMRYwFAYKCZImiZPyLGQBGRYGc2ltcGxlMRMwEQYDVQQKDApT
aW1wbGUgSW5jMRowGAYDVQQLDBFTaW1wbGUgU2lnbmluZyBDQTEaMBgGA1UEAwwR
U2ltcGxlIFNpZ25pbmcgQ0EwggEiMA0GCSqGSIb3DQEBAQUAA4IBDwAwggEKAoIB
AQCsuuuvwKb1PvT0pPK0y/8U9njfNfwT6uRZ0sxl1WllTdSjBPK0vEBvnrWiYVHN
lVO4Bdr5WYeHnCnvtzNirT1X4nIXpPPftNQdyFNs1Ay8ft4rBEdfrfZam57Krvy2
CIAB04577sCEF0VfvoRTX6kS+q+uZVhgwV1EEhOT2hyr35Ppfn9y+1C4OnM9U7NW
4ZFMVK7LLwkuWjECT63paLB9N1nArP8ZMgyQGTGsPlf48ckmxhHSPGbpVGPhmoaF
cUrjRCUf5BHYQKkF4BZLKRokdk+n+4HXu+uHfiUGTEdy5W+1BKoNXnW47g1iN772
UcC8CfNechQUZTH/36DBDOBZAgMBAAGjZjBkMA4GA1UdDwEB/wQEAwIBBjASBgNV
HRMBAf8ECDAGAQH/AgEAMB0GA1UdDgQWBBQ2o6WnS4xyvPELy+9ZV+WpypE72zAf
BgNVHSMEGDAWgBS0MzUBQFsIlZfYjVRN4SYzIComojANBgkqhkiG9w0BAQUFAAOC
AQEAILyfTIsxJTooNlxzaaR0dnfKjL6mpCFiCVbJWj04MGpiTb/Z30qEPG9GLY+X
KFB9H3Sxxy3GDdkL/w5RQvsuFflP+M4oEzlSsFaZY9c+1UyigN4dvWJ11jbteWt5
RDZAkvkZsykRJOqRlfwAb0L9aaluOVCf09ig8iCGGuL7ZoBP7lG+0zaTxQur9Q3U
MM0VFuYDJbd7Cz4/KAGxXBnVi+r2Kfkl9gcs1CpNHuO5PNrUejP/u9DMR0EAr/mb
bRb8MuQQZPHoheM8j/aQg1qHGrtmqTFSryNN1XTZdjijQV+ipzT1/S37yKVZ8QWb
YMSbaQpnZWapbT6nbZ1tGPTCkg==
-----END CERTIFICATE-----
Certificate:
    Data:
        Version: 3 (0x2)
        Serial Number: 1 (0x1)
        Signature Algorithm: sha1WithRSAEncryption
        Issuer: DC=org, DC=simple, O=Simple Inc, OU=Simple Root CA, CN=Simple Root CA
        Validity
            Not Before: Nov 12 08:42:49 2022 GMT
            Not After : Nov 11 08:42:49 2032 GMT
        Subject: DC=org, DC=simple, O=Simple Inc, OU=Simple Root CA, CN=Simple Root CA
        Subject Public Key Info:
            Public Key Algorithm: rsaEncryption
                Public-Key: (2048 bit)
                Modulus:
                    00:e0:52:35:d5:9d:93:68:26:18:f4:3b:30:1d:fd:
                    99:80:a3:43:5f:26:99:29:8d:94:db:15:54:39:ce:
                    95:ff:53:d1:da:53:2f:c0:74:7e:37:d9:33:36:4c:
                    b4:dc:eb:0c:73:d4:ff:ae:21:99:64:fe:ae:7f:d8:
                    d7:b1:4e:12:a2:22:b6:b6:8a:45:00:32:d8:7a:77:
                    02:4f:8a:b1:c8:71:e5:72:78:7b:4a:44:d2:19:e1:
                    73:5b:0f:11:77:a4:c8:7e:ac:b8:d0:4f:d2:41:7f:
                    d0:ba:55:06:e9:e9:73:70:ee:79:48:f3:4b:25:ed:
                    9d:a3:7f:b1:94:e7:d7:dd:8a:11:23:20:5e:27:9a:
                    a6:53:b5:8e:94:17:02:33:67:63:6f:0b:db:75:29:
                    7e:e8:66:a5:55:b4:eb:bb:66:5b:b5:a4:43:a6:c8:
                    1d:38:f0:ae:6d:ad:d4:d4:9c:20:4e:97:da:0b:ce:
                    87:73:b3:13:e7:71:87:4b:72:85:38:1b:55:49:64:
                    d9:28:a0:c5:97:2c:1e:0b:7b:e6:a0:2a:5e:71:88:
                    24:51:c3:85:f3:49:c2:36:f4:28:8b:6b:a4:cf:66:
                    07:ae:d7:7f:1a:84:91:bf:fb:7b:24:32:f0:8d:0a:
                    97:fd:00:6b:30:0b:af:1a:35:a2:f4:4b:45:72:b5:
                    d5:1d
                Exponent: 65537 (0x10001)
        X509v3 extensions:
            X509v3 Key Usage: critical
                Certificate Sign, CRL Sign
            X509v3 Basic Constraints: critical
                CA:TRUE
            X509v3 Subject Key Identifier: 
                B4:33:35:01:40:5B:08:95:97:D8:8D:54:4D:E1:26:33:20:2A:26:A2
            X509v3 Authority Key Identifier: 
                B4:33:35:01:40:5B:08:95:97:D8:8D:54:4D:E1:26:33:20:2A:26:A2
    Signature Algorithm: sha1WithRSAEncryption
    Signature Value:
        2c:11:10:64:83:76:fe:4f:56:fb:a2:7e:e8:2f:e8:c7:5e:12:
        14:6c:48:9a:95:a1:4c:d1:95:d8:8e:03:a9:83:ae:3f:c2:d8:
        d8:b5:93:4c:af:b8:2c:5c:f7:e6:6b:b3:d1:b9:58:b7:3b:0f:
        94:09:9f:00:c3:89:c3:7b:20:aa:73:ae:98:48:c4:97:1c:46:
        19:06:56:48:dd:fd:01:a8:6c:d7:40:41:22:7b:5d:42:bc:1c:
        b9:bd:3a:77:6b:21:bb:5f:6c:7f:cd:60:ed:99:9a:4e:f5:bf:
        76:f4:bf:db:4a:7f:8a:17:02:be:55:71:43:a0:7d:43:81:76:
        fd:a6:a6:81:46:dc:83:14:9a:eb:59:6e:c6:ac:2d:33:58:95:
        a6:f2:9d:67:f5:c2:31:8f:f4:cd:cc:e8:a6:88:39:d3:c9:20:
        52:5e:73:a4:24:1a:6d:32:da:f7:be:52:a4:ed:6a:0c:f1:67:
        b4:49:4e:77:ae:88:5e:f2:6e:1d:7c:fa:0a:43:0b:a1:f1:08:
        a4:79:bf:14:d6:62:b3:e6:20:db:c8:36:a2:45:33:41:15:6b:
        b2:cc:65:d3:05:32:7b:63:13:fc:62:e6:2b:3a:77:95:d4:20:
        75:5a:56:d1:55:22:4a:fb:02:bc:d8:52:6f:b7:5f:31:33:16:
        75:f5:a5:6c
-----BEGIN CERTIFICATE-----
MIIDxjCCAq6gAwIBAgIBATANBgkqhkiG9w0BAQUFADB0MRMwEQYKCZImiZPyLGQB
GRYDb3JnMRYwFAYKCZImiZPyLGQBGRYGc2ltcGxlMRMwEQYDVQQKDApTaW1wbGUg
SW5jMRcwFQYDVQQLDA5TaW1wbGUgUm9vdCBDQTEXMBUGA1UEAwwOU2ltcGxlIFJv
b3QgQ0EwHhcNMjIxMTEyMDg0MjQ5WhcNMzIxMTExMDg0MjQ5WjB0MRMwEQYKCZIm
iZPyLGQBGRYDb3JnMRYwFAYKCZImiZPyLGQBGRYGc2ltcGxlMRMwEQYDVQQKDApT
aW1wbGUgSW5jMRcwFQYDVQQLDA5TaW1wbGUgUm9vdCBDQTEXMBUGA1UEAwwOU2lt
cGxlIFJvb3QgQ0EwggEiMA0GCSqGSIb3DQEBAQUAA4IBDwAwggEKAoIBAQDgUjXV
nZNoJhj0OzAd/ZmAo0NfJpkpjZTbFVQ5zpX/U9HaUy/AdH432TM2TLTc6wxz1P+u
IZlk/q5/2NexThKiIra2ikUAMth6dwJPirHIceVyeHtKRNIZ4XNbDxF3pMh+rLjQ
T9JBf9C6VQbp6XNw7nlI80sl7Z2jf7GU59fdihEjIF4nmqZTtY6UFwIzZ2NvC9t1
KX7oZqVVtOu7Zlu1pEOmyB048K5trdTUnCBOl9oLzodzsxPncYdLcoU4G1VJZNko
oMWXLB4Le+agKl5xiCRRw4XzScI29CiLa6TPZgeu138ahJG/+3skMvCNCpf9AGsw
C68aNaL0S0VytdUdAgMBAAGjYzBhMA4GA1UdDwEB/wQEAwIBBjAPBgNVHRMBAf8E
BTADAQH/MB0GA1UdDgQWBBS0MzUBQFsIlZfYjVRN4SYzIComojAfBgNVHSMEGDAW
gBS0MzUBQFsIlZfYjVRN4SYzIComojANBgkqhkiG9w0BAQUFAAOCAQEALBEQZIN2
/k9W+6J+6C/ox14SFGxImpWhTNGV2I4DqYOuP8LY2LWTTK+4LFz35muz0blYtzsP
lAmfAMOJw3sgqnOumEjElxxGGQZWSN39Aahs10BBIntdQrwcub06d2shu19sf81g
7ZmaTvW/dvS/20p/ihcCvlVxQ6B9Q4F2/aamgUbcgxSa61luxqwtM1iVpvKdZ/XC
MY/0zczopog508kgUl5zpCQabTLa975SpO1qDPFntElOd66IXvJuHXz6CkMLofEI
pHm/FNZis+Yg28g2okUzQRVrssxl0wUye2MT/GLmKzp3ldQgdVpW0VUiSvsCvNhS
b7dfMTMWdfWlbA==
-----END CERTIFICATE-----
