Certificate:
    Data:
        Version: 3 (0x2)
        Serial Number: 2 (0x2)
        Signature Algorithm: sha1WithRSAEncryption
        Issuer: DC=org, DC=simple, O=Simple Inc, OU=Simple Root CA, CN=Simple Root CA
        Validity
            Not Before: Nov 12 09:01:53 2022 GMT
            Not After : Nov 11 09:01:53 2032 GMT
        Subject: DC=org, DC=simple, O=Simple Inc, OU=Simple Signing CA, CN=Simple Signing CA
        Subject Public Key Info:
            Public Key Algorithm: rsaEncryption
                Public-Key: (2048 bit)
                Modulus:
                    00:ac:ba:eb:af:c0:a6:f5:3e:f4:f4:a4:f2:b4:cb:
                    ff:14:f6:78:df:35:fc:13:ea:e4:59:d2:cc:65:d5:
                    69:65:4d:d4:a3:04:f2:b4:bc:40:6f:9e:b5:a2:61:
                    51:cd:95:53:b8:05:da:f9:59:87:87:9c:29:ef:b7:
                    33:62:ad:3d:57:e2:72:17:a4:f3:df:b4:d4:1d:c8:
                    53:6c:d4:0c:bc:7e:de:2b:04:47:5f:ad:f6:5a:9b:
                    9e:ca:ae:fc:b6:08:80:01:d3:8e:7b:ee:c0:84:17:
                    45:5f:be:84:53:5f:a9:12:fa:af:ae:65:58:60:c1:
                    5d:44:12:13:93:da:1c:ab:df:93:e9:7e:7f:72:fb:
                    50:b8:3a:73:3d:53:b3:56:e1:91:4c:54:ae:cb:2f:
                    09:2e:5a:31:02:4f:ad:e9:68:b0:7d:37:59:c0:ac:
                    ff:19:32:0c:90:19:31:ac:3e:57:f8:f1:c9:26:c6:
                    11:d2:3c:66:e9:54:63:e1:9a:86:85:71:4a:e3:44:
                    25:1f:e4:11:d8:40:a9:05:e0:16:4b:29:1a:24:76:
                    4f:a7:fb:81:d7:bb:eb:87:7e:25:06:4c:47:72:e5:
                    6f:b5:04:aa:0d:5e:75:b8:ee:0d:62:37:be:f6:51:
                    c0:bc:09:f3:5e:72:14:14:65:31:ff:df:a0:c1:0c:
                    e0:59
                Exponent: 65537 (0x10001)
        X509v3 extensions:
            X509v3 Key Usage: critical
                Certificate Sign, CRL Sign
            X509v3 Basic Constraints: critical
                CA:TRUE, pathlen:0
            X509v3 Subject Key Identifier: 
                36:A3:A5:A7:4B:8C:72:BC:F1:0B:CB:EF:59:57:E5:A9:CA:91:3B:DB
            X509v3 Authority Key Identifier: 
                B4:33:35:01:40:5B:08:95:97:D8:8D:54:4D:E1:26:33:20:2A:26:A2
    Signature Algorithm: sha1WithRSAEncryption
    Signature Value:
        20:bc:9f:4c:8b:31:25:3a:28:36:5c:73:69:a4:74:76:77:ca:
        8c:be:a6:a4:21:62:09:56:c9:5a:3d:38:30:6a:62:4d:bf:d9:
        df:4a:84:3c:6f:46:2d:8f:97:28:50:7d:1f:74:b1:c7:2d:c6:
        0d:d9:0b:ff:0e:51:42:fb:2e:15:f9:4f:f8:ce:28:13:39:52:
        b0:56:99:63:d7:3e:d5:4c:a2:80:de:1d:bd:62:75:d6:36:ed:
        79:6b:79:44:36:40:92:f9:19:b3:29:11:24:ea:91:95:fc:00:
        6f:42:fd:69:a9:6e:39:50:9f:d3:d8:a0:f2:20:86:1a:e2:fb:
        66:80:4f:ee:51:be:d3:36:93:c5:0b:ab:f5:0d:d4:30:cd:15:
        16:e6:03:25:b7:7b:0b:3e:3f:28:01:b1:5c:19:d5:8b:ea:f6:
        29:f9:25:f6:07:2c:d4:2a:4d:1e:e3:b9:3c:da:d4:7a:33:ff:
        bb:d0:cc:47:41:00:af:f9:9b:6d:16:fc:32:e4:10:64:f1:e8:
        85:e3:3c:8f:f6:90:83:5a:87:1a:bb:66:a9:31:52:af:23:4d:
        d5:74:d9:76:38:a3:41:5f:a2:a7:34:f5:fd:2d:fb:c8:a5:59:
        f1:05:9b:60:c4:9b:69:0a:67:65:66:a9:6d:3e:a7:6d:9d:6d:
        18:f4:c2:92
-----BEGIN CERTIFICATE-----
MIIDzzCCAregAwIBAgIBAjANBgkqhkiG9w0BAQUFADB0MRMwEQYKCZImiZPyLGQB
GRYDb3JnMRYwFAYKCZImiZPyLGQBGRYGc2ltcGxlMRMwEQYDVQQKDApTaW1wbGUg
SW5jMRcwFQYDVQQLDA5TaW1wbGUgUm9vdCBDQTEXMBUGA1UEAwwOU2ltcGxlIFJv
b3QgQ0EwHhcNMjIxMTEyMDkwMTUzWhcNMzIxMTExMDkwMTUzWjB6MRMwEQYKCZIm
iZPyLGQBGRYDb3JnMRYwFAYKCZImiZPyLGQBGRYGc2ltcGxlMRMwEQYDVQQKDApT
aW1wbGUgSW5jMRowGAYDVQQLDBFTaW1wbGUgU2lnbmluZyBDQTEaMBgGA1UEAwwR
U2ltcGxlIFNpZ25pbmcgQ0EwggEiMA0GCSqGSIb3DQEBAQUAA4IBDwAwggEKAoIB
AQCsuuuvwKb1PvT0pPK0y/8U9njfNfwT6uRZ0sxl1WllTdSjBPK0vEBvnrWiYVHN
lVO4Bdr5WYeHnCnvtzNirT1X4nIXpPPftNQdyFNs1Ay8ft4rBEdfrfZam57Krvy2
CIAB04577sCEF0VfvoRTX6kS+q+uZVhgwV1EEhOT2hyr35Ppfn9y+1C4OnM9U7NW
4ZFMVK7LLwkuWjECT63paLB9N1nArP8ZMgyQGTGsPlf48ckmxhHSPGbpVGPhmoaF
cUrjRCUf5BHYQKkF4BZLKRokdk+n+4HXu+uHfiUGTEdy5W+1BKoNXnW47g1iN772
UcC8CfNechQUZTH/36DBDOBZAgMBAAGjZjBkMA4GA1UdDwEB/wQEAwIBBjASBgNV
HRMBAf8ECDAGAQH/AgEAMB0GA1UdDgQWBBQ2o6WnS4xyvPELy+9ZV+WpypE72zAf
BgNVHSMEGDAWgBS0MzUBQFsIlZfYjVRN4SYzIComojANBgkqhkiG9w0BAQUFAAOC
AQEAILyfTIsxJTooNlxzaaR0dnfKjL6mpCFiCVbJWj04MGpiTb/Z30qEPG9GLY+X
KFB9H3Sxxy3GDdkL/w5RQvsuFflP+M4oEzlSsFaZY9c+1UyigN4dvWJ11jbteWt5
RDZAkvkZsykRJOqRlfwAb0L9aaluOVCf09ig8iCGGuL7ZoBP7lG+0zaTxQur9Q3U
MM0VFuYDJbd7Cz4/KAGxXBnVi+r2Kfkl9gcs1CpNHuO5PNrUejP/u9DMR0EAr/mb
bRb8MuQQZPHoheM8j/aQg1qHGrtmqTFSryNN1XTZdjijQV+ipzT1/S37yKVZ8QWb
YMSbaQpnZWapbT6nbZ1tGPTCkg==
-----END CERTIFICATE-----
